; Function Attrs: mustprogress nofree norecurse nosync nounwind willreturn memory(read, inaccessiblemem: none) uwtable
define internal fastcc noundef i32 @_ZL11adjustasizeP8LuaTableiPK10lua_TValue(ptr noundef readonly captures(none) %0, i32 noundef %1, ptr noundef readonly %2) unnamed_addr #3 {
  %4 = getelementptr inbounds nuw i8, ptr %0, i64 32
  %5 = load ptr, ptr %4, align 8, !tbaa !17
  %.not = icmp eq ptr %5, @luaH_dummynode
  br i1 %.not, label %6, label %10

6:                                                ; preds = %3
  %7 = getelementptr inbounds nuw i8, ptr %0, i64 8
  %8 = load i32, ptr %7, align 8, !tbaa !9
  %.fr19 = freeze i32 %8
  %9 = icmp slt i32 %1, %.fr19
  br label %10

10:                                               ; preds = %6, %3
  %.fr = phi i1 [ true, %3 ], [ %9, %6 ]
  %.not16 = icmp eq ptr %2, null
  br i1 %.not16, label %21, label %11

11:                                               ; preds = %10
  %12 = getelementptr inbounds nuw i8, ptr %2, i64 12
  %13 = load i32, ptr %12, align 4, !tbaa !4
  %14 = icmp eq i32 %13, 3
  br i1 %14, label %15, label %21

15:                                               ; preds = %11
  %16 = load double, ptr %2, align 8, !tbaa !16
  %17 = fptosi double %16 to i32
  %18 = sitofp i32 %17 to double
  %19 = fcmp oeq double %16, %18
  %20 = select i1 %19, i32 %17, i32 -1
  br label %21

21:                                               ; preds = %10, %11, %15
  %22 = phi i32 [ %20, %15 ], [ -1, %11 ], [ -1, %10 ]
  %23 = getelementptr inbounds nuw i8, ptr %0, i64 8
  %24 = getelementptr i8, ptr %0, i64 6
  %25 = getelementptr inbounds nuw i8, ptr %0, i64 24
  br i1 %.fr, label %.split.us, label %.critedge

.split.us:                                        ; preds = %21
  %26 = sext i32 %1 to i64
  br i1 %.not, label %.split.us.split.us, label %.split.us.split

.split.us.split.us:                               ; preds = %.split.us, %.split.us.split.us.backedge
  %indvars.iv23 = phi i64 [ %indvars.iv.next24, %.split.us.split.us.backedge ], [ %26, %.split.us ]
  %indvars.iv.next24 = add nsw i64 %indvars.iv23, 1
  %27 = trunc nsw i64 %indvars.iv.next24 to i32
  %28 = icmp eq i32 %22, %27
  br i1 %28, label %.split.us.split.us.backedge, label %29

29:                                               ; preds = %.split.us.split.us
  %30 = load i32, ptr %23, align 8, !tbaa !9
  %31 = trunc nsw i64 %indvars.iv23 to i32
  %32 = icmp ugt i32 %30, %31
  br i1 %32, label %33, label %_Z11luaH_getnumP8LuaTablei.exit.us.us

33:                                               ; preds = %29
  %34 = load ptr, ptr %25, align 8, !tbaa !20
  %35 = getelementptr inbounds %struct.lua_TValue, ptr %34, i64 %indvars.iv23
  br label %_Z11luaH_getnumP8LuaTablei.exit.us.us

_Z11luaH_getnumP8LuaTablei.exit.us.us:            ; preds = %29, %33
  %.015.i.us.us = phi ptr [ %35, %33 ], [ @luaO_nilobject_, %29 ]
  %36 = getelementptr inbounds nuw i8, ptr %.015.i.us.us, i64 12
  %37 = load i32, ptr %36, align 4, !tbaa !4
  %.not17.us.us = icmp eq i32 %37, 0
  br i1 %.not17.us.us, label %.critedge2, label %.split.us.split.us.backedge

.split.us.split.us.backedge:                      ; preds = %_Z11luaH_getnumP8LuaTablei.exit.us.us, %.split.us.split.us
  br label %.split.us.split.us, !llvm.loop !27

.split.us.split:                                  ; preds = %.split.us, %.split.us.split.backedge
  %indvars.iv = phi i64 [ %indvars.iv.next, %.split.us.split.backedge ], [ %26, %.split.us ]
  %indvars.iv.next = add nsw i64 %indvars.iv, 1
  %38 = trunc nsw i64 %indvars.iv.next to i32
  %39 = icmp eq i32 %22, %38
  br i1 %39, label %.split.us.split.backedge, label %40

40:                                               ; preds = %.split.us.split
  %41 = load i32, ptr %23, align 8, !tbaa !9
  %42 = trunc nsw i64 %indvars.iv to i32
  %43 = icmp ugt i32 %41, %42
  br i1 %43, label %80, label %44

44:                                               ; preds = %40
  %45 = sitofp i32 %38 to double
  %.val.i.us = load i8, ptr %24, align 2, !tbaa !22
  %46 = bitcast double %45 to i64
  %.0.extract.trunc.i.i.us = trunc i64 %46 to i32
  %.4.extract.shift.i.i.us = lshr i64 %46, 32
  %.4.extract.trunc.i.i.us = trunc nuw i64 %.4.extract.shift.i.i.us to i32
  %47 = and i32 %.4.extract.trunc.i.i.us, 2147483647
  %48 = lshr i32 %47, 18
  %49 = xor i32 %48, %.0.extract.trunc.i.i.us
  %50 = mul i32 %49, 1540483477
  %51 = lshr i32 %50, 22
  %52 = xor i32 %51, %47
  %53 = mul i32 %52, 1540483477
  %54 = lshr i32 %53, 17
  %55 = xor i32 %54, %50
  %56 = mul i32 %55, 1540483477
  %57 = lshr i32 %56, 19
  %58 = xor i32 %57, %53
  %59 = mul i32 %58, 1540483477
  %60 = zext nneg i8 %.val.i.us to i32
  %notmask.i.i.us = shl nsw i32 -1, %60
  %61 = xor i32 %notmask.i.i.us, -1
  %62 = and i32 %59, %61
  %63 = zext nneg i32 %62 to i64
  %64 = getelementptr inbounds nuw %struct.LuaNode, ptr %5, i64 %63
  br label %65

65:                                               ; preds = %76, %44
  %.0.i.us = phi ptr [ %64, %44 ], [ %79, %76 ]
  %66 = getelementptr inbounds nuw i8, ptr %.0.i.us, i64 28
  %67 = load i32, ptr %66, align 4
  %68 = and i32 %67, 15
  %69 = icmp eq i32 %68, 3
  br i1 %69, label %70, label %74

70:                                               ; preds = %65
  %71 = getelementptr inbounds nuw i8, ptr %.0.i.us, i64 16
  %72 = load double, ptr %71, align 8, !tbaa !16
  %73 = fcmp oeq double %72, %45
  br i1 %73, label %_Z11luaH_getnumP8LuaTablei.exit.us, label %74

74:                                               ; preds = %70, %65
  %75 = icmp ult i32 %67, 16
  br i1 %75, label %_Z11luaH_getnumP8LuaTablei.exit.us, label %76

76:                                               ; preds = %74
  %77 = ashr i32 %67, 4
  %78 = sext i32 %77 to i64
  %79 = getelementptr inbounds %struct.LuaNode, ptr %.0.i.us, i64 %78
  br label %65, !llvm.loop !28

80:                                               ; preds = %40
  %81 = load ptr, ptr %25, align 8, !tbaa !20
  %82 = getelementptr inbounds %struct.lua_TValue, ptr %81, i64 %indvars.iv
  br label %_Z11luaH_getnumP8LuaTablei.exit.us

_Z11luaH_getnumP8LuaTablei.exit.us:               ; preds = %70, %74, %80
  %.015.i.us = phi ptr [ %82, %80 ], [ %.0.i.us, %70 ], [ @luaO_nilobject_, %74 ]
  %83 = getelementptr inbounds nuw i8, ptr %.015.i.us, i64 12
  %84 = load i32, ptr %83, align 4, !tbaa !4
  %.not17.us = icmp eq i32 %84, 0
  br i1 %.not17.us, label %.critedge2, label %.split.us.split.backedge

.split.us.split.backedge:                         ; preds = %_Z11luaH_getnumP8LuaTablei.exit.us, %.split.us.split
  br label %.split.us.split, !llvm.loop !27

.critedge:                                        ; preds = %21, %.critedge
  %.0 = phi i32 [ %22, %.critedge ], [ %1, %21 ]
  %85 = add nsw i32 %.0, 1
  %86 = icmp eq i32 %85, %22
  br i1 %86, label %.critedge, label %.critedge2, !llvm.loop !27

.critedge2:                                       ; preds = %.critedge, %_Z11luaH_getnumP8LuaTablei.exit.us, %_Z11luaH_getnumP8LuaTablei.exit.us.us
  %.us-phi = phi i32 [ %31, %_Z11luaH_getnumP8LuaTablei.exit.us.us ], [ %42, %_Z11luaH_getnumP8LuaTablei.exit.us ], [ %.0, %.critedge ]
  ret i32 %.us-phi
}